target datalayout = "e-m:e-p270:32:32-p271:32:32-p272:64:64-i64:64-i128:128-f80:128-n8:16:32:64-S128"
target triple = "x86_64-pc-linux-gnu"

%struct.CONF_VALUE = type { ptr, ptr, ptr }

@bio_err = external global ptr, align 8
@.str.15 = private unnamed_addr constant [12 x i8] c"oid_section\00", align 1
@.str.16 = private unnamed_addr constant [32 x i8] c"problem loading oid section %s\0A\00", align 1
@.str.17 = private unnamed_addr constant [31 x i8] c"problem creating object %s=%s\0A\00", align 1

; Function Attrs: inlinehint nounwind uwtable
define internal ptr @ossl_check_const_CONF_VALUE_sk_type(ptr noundef %0) #5 {
  %2 = alloca ptr, align 8
  store ptr %0, ptr %2, align 8, !tbaa !45
  %3 = load ptr, ptr %2, align 8, !tbaa !45
  ret ptr %3
}

; Function Attrs: nounwind uwtable
define dso_local ptr @app_conf_try_string(ptr noundef %0, ptr noundef %1, ptr noundef %2) #0 {
  %4 = alloca ptr, align 8
  %5 = alloca ptr, align 8
  %6 = alloca ptr, align 8
  %7 = alloca ptr, align 8
  store ptr %0, ptr %4, align 8, !tbaa !43
  store ptr %1, ptr %5, align 8, !tbaa !9
  store ptr %2, ptr %6, align 8, !tbaa !9
  call void @llvm.lifetime.start.p0(i64 8, ptr %7) #12
  %8 = call i32 @ERR_set_mark()
  %9 = load ptr, ptr %4, align 8, !tbaa !43
  %10 = load ptr, ptr %5, align 8, !tbaa !9
  %11 = load ptr, ptr %6, align 8, !tbaa !9
  %12 = call ptr @NCONF_get_string(ptr noundef %9, ptr noundef %10, ptr noundef %11)
  store ptr %12, ptr %7, align 8, !tbaa !9
  %13 = load ptr, ptr %7, align 8, !tbaa !9
  %14 = icmp eq ptr %13, null
  br i1 %14, label %15, label %17

15:                                               ; preds = %3
  %16 = call i32 @ERR_pop_to_mark()
  br label %19

17:                                               ; preds = %3
  %18 = call i32 @ERR_clear_last_mark()
  br label %19

19:                                               ; preds = %17, %15
  %20 = load ptr, ptr %7, align 8, !tbaa !9
  call void @llvm.lifetime.end.p0(i64 8, ptr %7) #12
  ret ptr %20
}

; Function Attrs: nounwind uwtable
define dso_local i32 @add_oid_section(ptr noundef %0) #0 {
  %2 = alloca i32, align 4
  %3 = alloca ptr, align 8
  %4 = alloca ptr, align 8
  %5 = alloca ptr, align 8
  %6 = alloca ptr, align 8
  %7 = alloca i32, align 4
  %8 = alloca i32, align 4
  store ptr %0, ptr %3, align 8, !tbaa !43
  call void @llvm.lifetime.start.p0(i64 8, ptr %4) #12
  call void @llvm.lifetime.start.p0(i64 8, ptr %5) #12
  call void @llvm.lifetime.start.p0(i64 8, ptr %6) #12
  call void @llvm.lifetime.start.p0(i64 4, ptr %7) #12
  %9 = load ptr, ptr %3, align 8, !tbaa !43
  %10 = call ptr @app_conf_try_string(ptr noundef %9, ptr noundef null, ptr noundef @.str.15)
  store ptr %10, ptr %4, align 8, !tbaa !9
  %11 = icmp eq ptr %10, null
  br i1 %11, label %12, label %13

12:                                               ; preds = %1
  store i32 1, ptr %2, align 4
  store i32 1, ptr %8, align 4
  br label %59

13:                                               ; preds = %1
  %14 = load ptr, ptr %3, align 8, !tbaa !43
  %15 = load ptr, ptr %4, align 8, !tbaa !9
  %16 = call ptr @NCONF_get_section(ptr noundef %14, ptr noundef %15)
  store ptr %16, ptr %5, align 8, !tbaa !45
  %17 = icmp eq ptr %16, null
  br i1 %17, label %18, label %22

18:                                               ; preds = %13
  %19 = load ptr, ptr @bio_err, align 8, !tbaa !35
  %20 = load ptr, ptr %4, align 8, !tbaa !9
  %21 = call i32 (ptr, ptr, ...) @BIO_printf(ptr noundef %19, ptr noundef @.str.16, ptr noundef %20)
  store i32 0, ptr %2, align 4
  store i32 1, ptr %8, align 4
  br label %59

22:                                               ; preds = %13
  store i32 0, ptr %7, align 4, !tbaa !25
  br label %23

23:                                               ; preds = %55, %22
  %24 = load i32, ptr %7, align 4, !tbaa !25
  %25 = load ptr, ptr %5, align 8, !tbaa !45
  %26 = call ptr @ossl_check_const_CONF_VALUE_sk_type(ptr noundef %25)
  %27 = call i32 @OPENSSL_sk_num(ptr noundef %26)
  %28 = icmp slt i32 %24, %27
  br i1 %28, label %29, label %58

29:                                               ; preds = %23
  %30 = load ptr, ptr %5, align 8, !tbaa !45
  %31 = call ptr @ossl_check_const_CONF_VALUE_sk_type(ptr noundef %30)
  %32 = load i32, ptr %7, align 4, !tbaa !25
  %33 = call ptr @OPENSSL_sk_value(ptr noundef %31, i32 noundef %32)
  store ptr %33, ptr %6, align 8, !tbaa !30
  %34 = load ptr, ptr %6, align 8, !tbaa !30
  %35 = getelementptr inbounds nuw %struct.CONF_VALUE, ptr %34, i32 0, i32 2
  %36 = load ptr, ptr %35, align 8, !tbaa !47
  %37 = load ptr, ptr %6, align 8, !tbaa !30
  %38 = getelementptr inbounds nuw %struct.CONF_VALUE, ptr %37, i32 0, i32 1
  %39 = load ptr, ptr %38, align 8, !tbaa !49
  %40 = load ptr, ptr %6, align 8, !tbaa !30
  %41 = getelementptr inbounds nuw %struct.CONF_VALUE, ptr %40, i32 0, i32 1
  %42 = load ptr, ptr %41, align 8, !tbaa !49
  %43 = call i32 @OBJ_create(ptr noundef %36, ptr noundef %39, ptr noundef %42)
  %44 = icmp eq i32 %43, 0
  br i1 %44, label %45, label %54

45:                                               ; preds = %29
  %46 = load ptr, ptr @bio_err, align 8, !tbaa !35
  %47 = load ptr, ptr %6, align 8, !tbaa !30
  %48 = getelementptr inbounds nuw %struct.CONF_VALUE, ptr %47, i32 0, i32 1
  %49 = load ptr, ptr %48, align 8, !tbaa !49
  %50 = load ptr, ptr %6, align 8, !tbaa !30
  %51 = getelementptr inbounds nuw %struct.CONF_VALUE, ptr %50, i32 0, i32 2
  %52 = load ptr, ptr %51, align 8, !tbaa !47
  %53 = call i32 (ptr, ptr, ...) @BIO_printf(ptr noundef %46, ptr noundef @.str.17, ptr noundef %49, ptr noundef %52)
  store i32 0, ptr %2, align 4
  store i32 1, ptr %8, align 4
  br label %59

54:                                               ; preds = %29
  br label %55

55:                                               ; preds = %54
  %56 = load i32, ptr %7, align 4, !tbaa !25
  %57 = add nsw i32 %56, 1
  store i32 %57, ptr %7, align 4, !tbaa !25
  br label %23, !llvm.loop !50

58:                                               ; preds = %23
  store i32 1, ptr %2, align 4
  store i32 1, ptr %8, align 4
  br label %59

59:                                               ; preds = %58, %45, %18, %12
  call void @llvm.lifetime.end.p0(i64 4, ptr %7) #12
  call void @llvm.lifetime.end.p0(i64 8, ptr %6) #12
  call void @llvm.lifetime.end.p0(i64 8, ptr %5) #12
  call void @llvm.lifetime.end.p0(i64 8, ptr %4) #12
  %60 = load i32, ptr %2, align 4
  ret i32 %60
}