; Function Attrs: nounwind uwtable
define dso_local range(i32 0, 2) i32 @add_oid_section(ptr noundef %0) local_unnamed_addr #0 {
  %2 = tail call i32 @ERR_set_mark() #27
  %3 = tail call ptr @NCONF_get_string(ptr noundef %0, ptr noundef null, ptr noundef nonnull @.str.15) #27
  %4 = icmp eq ptr %3, null
  br i1 %4, label %app_conf_try_string.exit.thread, label %6

app_conf_try_string.exit.thread:                  ; preds = %1
  %5 = tail call i32 @ERR_pop_to_mark() #27
  br label %.loopexit

6:                                                ; preds = %1
  %7 = tail call i32 @ERR_clear_last_mark() #27
  %8 = tail call ptr @NCONF_get_section(ptr noundef %0, ptr noundef nonnull %3) #27
  %9 = icmp eq ptr %8, null
  br i1 %9, label %12, label %.preheader

.preheader:                                       ; preds = %6
  %10 = tail call i32 @OPENSSL_sk_num(ptr noundef nonnull %8) #27
  %11 = icmp sgt i32 %10, 0
  br i1 %11, label %.lr.ph, label %.loopexit

12:                                               ; preds = %6
  %13 = load ptr, ptr @bio_err, align 8, !tbaa !26
  %14 = tail call i32 (ptr, ptr, ...) @BIO_printf(ptr noundef %13, ptr noundef nonnull @.str.16, ptr noundef nonnull %3) #27
  br label %.loopexit

15:                                               ; preds = %.lr.ph
  %16 = add nuw nsw i32 %.019, 1
  %17 = tail call i32 @OPENSSL_sk_num(ptr noundef nonnull %8) #27
  %18 = icmp slt i32 %16, %17
  br i1 %18, label %.lr.ph, label %.loopexit, !llvm.loop !31

.lr.ph:                                           ; preds = %.preheader, %15
  %.019 = phi i32 [ %16, %15 ], [ 0, %.preheader ]
  %19 = tail call ptr @OPENSSL_sk_value(ptr noundef nonnull %8, i32 noundef %.019) #27
  %20 = getelementptr inbounds nuw i8, ptr %19, i64 16
  %21 = load ptr, ptr %20, align 8, !tbaa !32
  %22 = getelementptr inbounds nuw i8, ptr %19, i64 8
  %23 = load ptr, ptr %22, align 8, !tbaa !34
  %24 = tail call i32 @OBJ_create(ptr noundef %21, ptr noundef %23, ptr noundef %23) #27
  %25 = icmp eq i32 %24, 0
  br i1 %25, label %26, label %15

26:                                               ; preds = %.lr.ph
  %27 = getelementptr inbounds nuw i8, ptr %19, i64 16
  %28 = getelementptr inbounds nuw i8, ptr %19, i64 8
  %29 = load ptr, ptr @bio_err, align 8, !tbaa !26
  %30 = load ptr, ptr %28, align 8, !tbaa !34
  %31 = load ptr, ptr %27, align 8, !tbaa !32
  %32 = tail call i32 (ptr, ptr, ...) @BIO_printf(ptr noundef %29, ptr noundef nonnull @.str.17, ptr noundef %30, ptr noundef %31) #27
  br label %.loopexit

.loopexit:                                        ; preds = %15, %.preheader, %app_conf_try_string.exit.thread, %26, %12
  %.014 = phi i32 [ 0, %12 ], [ 0, %26 ], [ 1, %app_conf_try_string.exit.thread ], [ 1, %.preheader ], [ 1, %15 ]
  ret i32 %.014
}